target datalayout = "e-m:e-p270:32:32-p271:32:32-p272:64:64-i64:64-i128:128-f80:128-n8:16:32:64-S128"
target triple = "x86_64-pc-linux-gnu"

%struct.AVChannelLayout = type { i32, i32, %union.anon.1, ptr }
%union.anon.1 = type { i64 }
%struct.AVRational = type { i32, i32 }
%struct.FillBordersContext = type { ptr, i32, i32, i32, i32, i32, i32, i32, [4 x %struct.Borders], [4 x i32], [4 x i32], [4 x i8], [4 x i8], [4 x i8], ptr }
%struct.Borders = type { i32, i32, i32, i32 }
%struct.AVFrame = type { [8 x ptr], [8 x i32], ptr, i32, i32, i32, i32, i32, %struct.AVRational, i64, i64, %struct.AVRational, i32, ptr, i32, i32, [8 x ptr], ptr, i32, ptr, i32, i32, i32, i32, i32, i32, i32, i64, ptr, i32, ptr, ptr, i64, i64, i64, i64, ptr, %struct.AVChannelLayout, i64 }

; Function Attrs: nounwind uwtable
define internal void @mirror_borders16(ptr noundef %0, ptr noundef %1) #0 {
  %3 = alloca ptr, align 8
  %4 = alloca ptr, align 8
  %5 = alloca i32, align 4
  %6 = alloca i32, align 4
  %7 = alloca i32, align 4
  %8 = alloca ptr, align 8
  %9 = alloca i64, align 8
  store ptr %0, ptr %3, align 8, !tbaa !37
  store ptr %1, ptr %4, align 8, !tbaa !26
  call void @llvm.lifetime.start.p0(i64 4, ptr %5) #8
  call void @llvm.lifetime.start.p0(i64 4, ptr %6) #8
  call void @llvm.lifetime.start.p0(i64 4, ptr %7) #8
  store i32 0, ptr %5, align 4, !tbaa !11
  br label %10

10:                                               ; preds = %285, %2
  %11 = load i32, ptr %5, align 4, !tbaa !11
  %12 = load ptr, ptr %3, align 8, !tbaa !37
  %13 = getelementptr inbounds nuw %struct.FillBordersContext, ptr %12, i32 0, i32 6
  %14 = load i32, ptr %13, align 4, !tbaa !48
  %15 = icmp slt i32 %11, %14
  br i1 %15, label %16, label %288

16:                                               ; preds = %10
  call void @llvm.lifetime.start.p0(i64 8, ptr %8) #8
  %17 = load ptr, ptr %4, align 8, !tbaa !26
  %18 = getelementptr inbounds nuw %struct.AVFrame, ptr %17, i32 0, i32 0
  %19 = load i32, ptr %5, align 4, !tbaa !11
  %20 = sext i32 %19 to i64
  %21 = getelementptr inbounds [8 x ptr], ptr %18, i64 0, i64 %20
  %22 = load ptr, ptr %21, align 8, !tbaa !9
  store ptr %22, ptr %8, align 8, !tbaa !75
  call void @llvm.lifetime.start.p0(i64 8, ptr %9) #8
  %23 = load ptr, ptr %4, align 8, !tbaa !26
  %24 = getelementptr inbounds nuw %struct.AVFrame, ptr %23, i32 0, i32 1
  %25 = load i32, ptr %5, align 4, !tbaa !11
  %26 = sext i32 %25 to i64
  %27 = getelementptr inbounds [8 x i32], ptr %24, i64 0, i64 %26
  %28 = load i32, ptr %27, align 4, !tbaa !11
  %29 = sdiv i32 %28, 2
  %30 = sext i32 %29 to i64
  store i64 %30, ptr %9, align 8, !tbaa !70
  %31 = load ptr, ptr %3, align 8, !tbaa !37
  %32 = getelementptr inbounds nuw %struct.FillBordersContext, ptr %31, i32 0, i32 8
  %33 = load i32, ptr %5, align 4, !tbaa !11
  %34 = sext i32 %33 to i64
  %35 = getelementptr inbounds [4 x %struct.Borders], ptr %32, i64 0, i64 %34
  %36 = getelementptr inbounds nuw %struct.Borders, ptr %35, i32 0, i32 2
  %37 = load i32, ptr %36, align 4, !tbaa !63
  store i32 %37, ptr %6, align 4, !tbaa !11
  br label %38

38:                                               ; preds = %170, %16
  %39 = load i32, ptr %6, align 4, !tbaa !11
  %40 = load ptr, ptr %3, align 8, !tbaa !37
  %41 = getelementptr inbounds nuw %struct.FillBordersContext, ptr %40, i32 0, i32 10
  %42 = load i32, ptr %5, align 4, !tbaa !11
  %43 = sext i32 %42 to i64
  %44 = getelementptr inbounds [4 x i32], ptr %41, i64 0, i64 %43
  %45 = load i32, ptr %44, align 4, !tbaa !11
  %46 = load ptr, ptr %3, align 8, !tbaa !37
  %47 = getelementptr inbounds nuw %struct.FillBordersContext, ptr %46, i32 0, i32 8
  %48 = load i32, ptr %5, align 4, !tbaa !11
  %49 = sext i32 %48 to i64
  %50 = getelementptr inbounds [4 x %struct.Borders], ptr %47, i64 0, i64 %49
  %51 = getelementptr inbounds nuw %struct.Borders, ptr %50, i32 0, i32 3
  %52 = load i32, ptr %51, align 4, !tbaa !64
  %53 = sub nsw i32 %45, %52
  %54 = icmp slt i32 %39, %53
  br i1 %54, label %55, label %173

55:                                               ; preds = %38
  store i32 0, ptr %7, align 4, !tbaa !11
  br label %56

56:                                               ; preds = %97, %55
  %57 = load i32, ptr %7, align 4, !tbaa !11
  %58 = load ptr, ptr %3, align 8, !tbaa !37
  %59 = getelementptr inbounds nuw %struct.FillBordersContext, ptr %58, i32 0, i32 8
  %60 = load i32, ptr %5, align 4, !tbaa !11
  %61 = sext i32 %60 to i64
  %62 = getelementptr inbounds [4 x %struct.Borders], ptr %59, i64 0, i64 %61
  %63 = getelementptr inbounds nuw %struct.Borders, ptr %62, i32 0, i32 0
  %64 = load i32, ptr %63, align 4, !tbaa !60
  %65 = icmp slt i32 %57, %64
  br i1 %65, label %66, label %100

66:                                               ; preds = %56
  %67 = load ptr, ptr %8, align 8, !tbaa !75
  %68 = load i32, ptr %6, align 4, !tbaa !11
  %69 = sext i32 %68 to i64
  %70 = load i64, ptr %9, align 8, !tbaa !70
  %71 = mul nsw i64 %69, %70
  %72 = load ptr, ptr %3, align 8, !tbaa !37
  %73 = getelementptr inbounds nuw %struct.FillBordersContext, ptr %72, i32 0, i32 8
  %74 = load i32, ptr %5, align 4, !tbaa !11
  %75 = sext i32 %74 to i64
  %76 = getelementptr inbounds [4 x %struct.Borders], ptr %73, i64 0, i64 %75
  %77 = getelementptr inbounds nuw %struct.Borders, ptr %76, i32 0, i32 0
  %78 = load i32, ptr %77, align 4, !tbaa !60
  %79 = mul nsw i32 %78, 2
  %80 = sext i32 %79 to i64
  %81 = add nsw i64 %71, %80
  %82 = sub nsw i64 %81, 1
  %83 = load i32, ptr %7, align 4, !tbaa !11
  %84 = sext i32 %83 to i64
  %85 = sub nsw i64 %82, %84
  %86 = getelementptr inbounds i16, ptr %67, i64 %85
  %87 = load i16, ptr %86, align 2, !tbaa !77
  %88 = load ptr, ptr %8, align 8, !tbaa !75
  %89 = load i32, ptr %6, align 4, !tbaa !11
  %90 = sext i32 %89 to i64
  %91 = load i64, ptr %9, align 8, !tbaa !70
  %92 = mul nsw i64 %90, %91
  %93 = load i32, ptr %7, align 4, !tbaa !11
  %94 = sext i32 %93 to i64
  %95 = add nsw i64 %92, %94
  %96 = getelementptr inbounds i16, ptr %88, i64 %95
  store i16 %87, ptr %96, align 2, !tbaa !77
  br label %97

97:                                               ; preds = %66
  %98 = load i32, ptr %7, align 4, !tbaa !11
  %99 = add nsw i32 %98, 1
  store i32 %99, ptr %7, align 4, !tbaa !11
  br label %56, !llvm.loop !91

100:                                              ; preds = %56
  store i32 0, ptr %7, align 4, !tbaa !11
  br label %101

101:                                              ; preds = %166, %100
  %102 = load i32, ptr %7, align 4, !tbaa !11
  %103 = load ptr, ptr %3, align 8, !tbaa !37
  %104 = getelementptr inbounds nuw %struct.FillBordersContext, ptr %103, i32 0, i32 8
  %105 = load i32, ptr %5, align 4, !tbaa !11
  %106 = sext i32 %105 to i64
  %107 = getelementptr inbounds [4 x %struct.Borders], ptr %104, i64 0, i64 %106
  %108 = getelementptr inbounds nuw %struct.Borders, ptr %107, i32 0, i32 1
  %109 = load i32, ptr %108, align 4, !tbaa !62
  %110 = icmp slt i32 %102, %109
  br i1 %110, label %111, label %169

111:                                              ; preds = %101
  %112 = load ptr, ptr %8, align 8, !tbaa !75
  %113 = load i32, ptr %6, align 4, !tbaa !11
  %114 = sext i32 %113 to i64
  %115 = load i64, ptr %9, align 8, !tbaa !70
  %116 = mul nsw i64 %114, %115
  %117 = load ptr, ptr %3, align 8, !tbaa !37
  %118 = getelementptr inbounds nuw %struct.FillBordersContext, ptr %117, i32 0, i32 9
  %119 = load i32, ptr %5, align 4, !tbaa !11
  %120 = sext i32 %119 to i64
  %121 = getelementptr inbounds [4 x i32], ptr %118, i64 0, i64 %120
  %122 = load i32, ptr %121, align 4, !tbaa !11
  %123 = sext i32 %122 to i64
  %124 = add nsw i64 %116, %123
  %125 = load ptr, ptr %3, align 8, !tbaa !37
  %126 = getelementptr inbounds nuw %struct.FillBordersContext, ptr %125, i32 0, i32 8
  %127 = load i32, ptr %5, align 4, !tbaa !11
  %128 = sext i32 %127 to i64
  %129 = getelementptr inbounds [4 x %struct.Borders], ptr %126, i64 0, i64 %128
  %130 = getelementptr inbounds nuw %struct.Borders, ptr %129, i32 0, i32 1
  %131 = load i32, ptr %130, align 4, !tbaa !62
  %132 = sext i32 %131 to i64
  %133 = sub nsw i64 %124, %132
  %134 = sub nsw i64 %133, 1
  %135 = load i32, ptr %7, align 4, !tbaa !11
  %136 = sext i32 %135 to i64
  %137 = sub nsw i64 %134, %136
  %138 = getelementptr inbounds i16, ptr %112, i64 %137
  %139 = load i16, ptr %138, align 2, !tbaa !77
  %140 = load ptr, ptr %8, align 8, !tbaa !75
  %141 = load i32, ptr %6, align 4, !tbaa !11
  %142 = sext i32 %141 to i64
  %143 = load i64, ptr %9, align 8, !tbaa !70
  %144 = mul nsw i64 %142, %143
  %145 = load ptr, ptr %3, align 8, !tbaa !37
  %146 = getelementptr inbounds nuw %struct.FillBordersContext, ptr %145, i32 0, i32 9
  %147 = load i32, ptr %5, align 4, !tbaa !11
  %148 = sext i32 %147 to i64
  %149 = getelementptr inbounds [4 x i32], ptr %146, i64 0, i64 %148
  %150 = load i32, ptr %149, align 4, !tbaa !11
  %151 = sext i32 %150 to i64
  %152 = add nsw i64 %144, %151
  %153 = load ptr, ptr %3, align 8, !tbaa !37
  %154 = getelementptr inbounds nuw %struct.FillBordersContext, ptr %153, i32 0, i32 8
  %155 = load i32, ptr %5, align 4, !tbaa !11
  %156 = sext i32 %155 to i64
  %157 = getelementptr inbounds [4 x %struct.Borders], ptr %154, i64 0, i64 %156
  %158 = getelementptr inbounds nuw %struct.Borders, ptr %157, i32 0, i32 1
  %159 = load i32, ptr %158, align 4, !tbaa !62
  %160 = sext i32 %159 to i64
  %161 = sub nsw i64 %152, %160
  %162 = load i32, ptr %7, align 4, !tbaa !11
  %163 = sext i32 %162 to i64
  %164 = add nsw i64 %161, %163
  %165 = getelementptr inbounds i16, ptr %140, i64 %164
  store i16 %139, ptr %165, align 2, !tbaa !77
  br label %166

166:                                              ; preds = %111
  %167 = load i32, ptr %7, align 4, !tbaa !11
  %168 = add nsw i32 %167, 1
  store i32 %168, ptr %7, align 4, !tbaa !11
  br label %101, !llvm.loop !92

169:                                              ; preds = %101
  br label %170

170:                                              ; preds = %169
  %171 = load i32, ptr %6, align 4, !tbaa !11
  %172 = add nsw i32 %171, 1
  store i32 %172, ptr %6, align 4, !tbaa !11
  br label %38, !llvm.loop !93

173:                                              ; preds = %38
  store i32 0, ptr %6, align 4, !tbaa !11
  br label %174

174:                                              ; preds = %215, %173
  %175 = load i32, ptr %6, align 4, !tbaa !11
  %176 = load ptr, ptr %3, align 8, !tbaa !37
  %177 = getelementptr inbounds nuw %struct.FillBordersContext, ptr %176, i32 0, i32 8
  %178 = load i32, ptr %5, align 4, !tbaa !11
  %179 = sext i32 %178 to i64
  %180 = getelementptr inbounds [4 x %struct.Borders], ptr %177, i64 0, i64 %179
  %181 = getelementptr inbounds nuw %struct.Borders, ptr %180, i32 0, i32 2
  %182 = load i32, ptr %181, align 4, !tbaa !63
  %183 = icmp slt i32 %175, %182
  br i1 %183, label %184, label %218

184:                                              ; preds = %174
  %185 = load ptr, ptr %8, align 8, !tbaa !75
  %186 = load i32, ptr %6, align 4, !tbaa !11
  %187 = sext i32 %186 to i64
  %188 = load i64, ptr %9, align 8, !tbaa !70
  %189 = mul nsw i64 %187, %188
  %190 = getelementptr inbounds i16, ptr %185, i64 %189
  %191 = load ptr, ptr %8, align 8, !tbaa !75
  %192 = load ptr, ptr %3, align 8, !tbaa !37
  %193 = getelementptr inbounds nuw %struct.FillBordersContext, ptr %192, i32 0, i32 8
  %194 = load i32, ptr %5, align 4, !tbaa !11
  %195 = sext i32 %194 to i64
  %196 = getelementptr inbounds [4 x %struct.Borders], ptr %193, i64 0, i64 %195
  %197 = getelementptr inbounds nuw %struct.Borders, ptr %196, i32 0, i32 2
  %198 = load i32, ptr %197, align 4, !tbaa !63
  %199 = mul nsw i32 %198, 2
  %200 = sub nsw i32 %199, 1
  %201 = load i32, ptr %6, align 4, !tbaa !11
  %202 = sub nsw i32 %200, %201
  %203 = sext i32 %202 to i64
  %204 = load i64, ptr %9, align 8, !tbaa !70
  %205 = mul nsw i64 %203, %204
  %206 = getelementptr inbounds i16, ptr %191, i64 %205
  %207 = load ptr, ptr %3, align 8, !tbaa !37
  %208 = getelementptr inbounds nuw %struct.FillBordersContext, ptr %207, i32 0, i32 9
  %209 = load i32, ptr %5, align 4, !tbaa !11
  %210 = sext i32 %209 to i64
  %211 = getelementptr inbounds [4 x i32], ptr %208, i64 0, i64 %210
  %212 = load i32, ptr %211, align 4, !tbaa !11
  %213 = mul nsw i32 %212, 2
  %214 = sext i32 %213 to i64
  call void @llvm.memcpy.p0.p0.i64(ptr align 2 %190, ptr align 2 %206, i64 %214, i1 false)
  br label %215

215:                                              ; preds = %184
  %216 = load i32, ptr %6, align 4, !tbaa !11
  %217 = add nsw i32 %216, 1
  store i32 %217, ptr %6, align 4, !tbaa !11
  br label %174, !llvm.loop !94

218:                                              ; preds = %174
  store i32 0, ptr %6, align 4, !tbaa !11
  br label %219

219:                                              ; preds = %281, %218
  %220 = load i32, ptr %6, align 4, !tbaa !11
  %221 = load ptr, ptr %3, align 8, !tbaa !37
  %222 = getelementptr inbounds nuw %struct.FillBordersContext, ptr %221, i32 0, i32 8
  %223 = load i32, ptr %5, align 4, !tbaa !11
  %224 = sext i32 %223 to i64
  %225 = getelementptr inbounds [4 x %struct.Borders], ptr %222, i64 0, i64 %224
  %226 = getelementptr inbounds nuw %struct.Borders, ptr %225, i32 0, i32 3
  %227 = load i32, ptr %226, align 4, !tbaa !64
  %228 = icmp slt i32 %220, %227
  br i1 %228, label %229, label %284

229:                                              ; preds = %219
  %230 = load ptr, ptr %8, align 8, !tbaa !75
  %231 = load ptr, ptr %3, align 8, !tbaa !37
  %232 = getelementptr inbounds nuw %struct.FillBordersContext, ptr %231, i32 0, i32 10
  %233 = load i32, ptr %5, align 4, !tbaa !11
  %234 = sext i32 %233 to i64
  %235 = getelementptr inbounds [4 x i32], ptr %232, i64 0, i64 %234
  %236 = load i32, ptr %235, align 4, !tbaa !11
  %237 = load ptr, ptr %3, align 8, !tbaa !37
  %238 = getelementptr inbounds nuw %struct.FillBordersContext, ptr %237, i32 0, i32 8
  %239 = load i32, ptr %5, align 4, !tbaa !11
  %240 = sext i32 %239 to i64
  %241 = getelementptr inbounds [4 x %struct.Borders], ptr %238, i64 0, i64 %240
  %242 = getelementptr inbounds nuw %struct.Borders, ptr %241, i32 0, i32 3
  %243 = load i32, ptr %242, align 4, !tbaa !64
  %244 = sub nsw i32 %236, %243
  %245 = load i32, ptr %6, align 4, !tbaa !11
  %246 = add nsw i32 %244, %245
  %247 = sext i32 %246 to i64
  %248 = load i64, ptr %9, align 8, !tbaa !70
  %249 = mul nsw i64 %247, %248
  %250 = getelementptr inbounds i16, ptr %230, i64 %249
  %251 = load ptr, ptr %8, align 8, !tbaa !75
  %252 = load ptr, ptr %3, align 8, !tbaa !37
  %253 = getelementptr inbounds nuw %struct.FillBordersContext, ptr %252, i32 0, i32 10
  %254 = load i32, ptr %5, align 4, !tbaa !11
  %255 = sext i32 %254 to i64
  %256 = getelementptr inbounds [4 x i32], ptr %253, i64 0, i64 %255
  %257 = load i32, ptr %256, align 4, !tbaa !11
  %258 = load ptr, ptr %3, align 8, !tbaa !37
  %259 = getelementptr inbounds nuw %struct.FillBordersContext, ptr %258, i32 0, i32 8
  %260 = load i32, ptr %5, align 4, !tbaa !11
  %261 = sext i32 %260 to i64
  %262 = getelementptr inbounds [4 x %struct.Borders], ptr %259, i64 0, i64 %261
  %263 = getelementptr inbounds nuw %struct.Borders, ptr %262, i32 0, i32 3
  %264 = load i32, ptr %263, align 4, !tbaa !64
  %265 = sub nsw i32 %257, %264
  %266 = sub nsw i32 %265, 1
  %267 = load i32, ptr %6, align 4, !tbaa !11
  %268 = sub nsw i32 %266, %267
  %269 = sext i32 %268 to i64
  %270 = load i64, ptr %9, align 8, !tbaa !70
  %271 = mul nsw i64 %269, %270
  %272 = getelementptr inbounds i16, ptr %251, i64 %271
  %273 = load ptr, ptr %3, align 8, !tbaa !37
  %274 = getelementptr inbounds nuw %struct.FillBordersContext, ptr %273, i32 0, i32 9
  %275 = load i32, ptr %5, align 4, !tbaa !11
  %276 = sext i32 %275 to i64
  %277 = getelementptr inbounds [4 x i32], ptr %274, i64 0, i64 %276
  %278 = load i32, ptr %277, align 4, !tbaa !11
  %279 = mul nsw i32 %278, 2
  %280 = sext i32 %279 to i64
  call void @llvm.memcpy.p0.p0.i64(ptr align 2 %250, ptr align 2 %272, i64 %280, i1 false)
  br label %281

281:                                              ; preds = %229
  %282 = load i32, ptr %6, align 4, !tbaa !11
  %283 = add nsw i32 %282, 1
  store i32 %283, ptr %6, align 4, !tbaa !11
  br label %219, !llvm.loop !95

284:                                              ; preds = %219
  call void @llvm.lifetime.end.p0(i64 8, ptr %9) #8
  call void @llvm.lifetime.end.p0(i64 8, ptr %8) #8
  br label %285

285:                                              ; preds = %284
  %286 = load i32, ptr %5, align 4, !tbaa !11
  %287 = add nsw i32 %286, 1
  store i32 %287, ptr %5, align 4, !tbaa !11
  br label %10, !llvm.loop !96

288:                                              ; preds = %10
  call void @llvm.lifetime.end.p0(i64 4, ptr %7) #8
  call void @llvm.lifetime.end.p0(i64 4, ptr %6) #8
  call void @llvm.lifetime.end.p0(i64 4, ptr %5) #8
  ret void
}