; Function Attrs: nofree norecurse nosync nounwind memory(readwrite, inaccessiblemem: none) uwtable
define internal void @mirror_borders16(ptr noundef readonly captures(none) %0, ptr noundef readonly captures(none) %1) #3 {
  %3 = getelementptr inbounds nuw i8, ptr %0, i64 28
  %4 = load i32, ptr %3, align 4, !tbaa !39
  %5 = icmp sgt i32 %4, 0
  br i1 %5, label %.lr.ph104, label %._crit_edge105

.lr.ph104:                                        ; preds = %2
  %6 = getelementptr inbounds nuw i8, ptr %1, i64 64
  %7 = getelementptr inbounds nuw i8, ptr %0, i64 36
  %8 = getelementptr inbounds nuw i8, ptr %0, i64 116
  %9 = getelementptr inbounds nuw i8, ptr %0, i64 100
  br label %10

10:                                               ; preds = %.lr.ph104, %._crit_edge101
  %indvars.iv118 = phi i64 [ 0, %.lr.ph104 ], [ %indvars.iv.next119, %._crit_edge101 ]
  %11 = getelementptr inbounds nuw [8 x ptr], ptr %1, i64 0, i64 %indvars.iv118
  %12 = load ptr, ptr %11, align 8, !tbaa !62
  %13 = getelementptr inbounds nuw [8 x i32], ptr %6, i64 0, i64 %indvars.iv118
  %14 = load i32, ptr %13, align 4, !tbaa !45
  %15 = sdiv i32 %14, 2
  %16 = sext i32 %15 to i64
  %17 = getelementptr inbounds nuw [4 x %struct.Borders], ptr %7, i64 0, i64 %indvars.iv118
  %18 = getelementptr inbounds nuw i8, ptr %17, i64 8
  %19 = load i32, ptr %18, align 4, !tbaa !55
  %20 = getelementptr inbounds nuw [4 x i32], ptr %8, i64 0, i64 %indvars.iv118
  %21 = load i32, ptr %20, align 4, !tbaa !45
  %22 = getelementptr inbounds nuw i8, ptr %17, i64 12
  %23 = load i32, ptr %22, align 4, !tbaa !56
  %24 = sub nsw i32 %21, %23
  %25 = icmp slt i32 %19, %24
  br i1 %25, label %.preheader89.lr.ph, label %.preheader91

.preheader89.lr.ph:                               ; preds = %10
  %26 = load i32, ptr %17, align 4, !tbaa !52
  %27 = icmp sgt i32 %26, 0
  %28 = shl nsw i32 %26, 1
  %29 = sext i32 %28 to i64
  %30 = getelementptr inbounds nuw i8, ptr %17, i64 4
  %31 = load i32, ptr %30, align 4, !tbaa !54
  %32 = icmp sgt i32 %31, 0
  %33 = getelementptr inbounds nuw [4 x i32], ptr %9, i64 0, i64 %indvars.iv118
  %34 = sext i32 %31 to i64
  %35 = sext i32 %19 to i64
  %36 = sext i32 %24 to i64
  %wide.trip.count = zext nneg i32 %26 to i64
  %wide.trip.count110 = zext nneg i32 %31 to i64
  br label %.preheader89

.preheader91:                                     ; preds = %._crit_edge, %10
  %37 = icmp sgt i32 %19, 0
  br i1 %37, label %.lr.ph98, label %.preheader90

.lr.ph98:                                         ; preds = %.preheader91
  %38 = getelementptr inbounds nuw [4 x i32], ptr %9, i64 0, i64 %indvars.iv118
  br label %62

.preheader89:                                     ; preds = %.preheader89.lr.ph, %._crit_edge
  %indvars.iv112 = phi i64 [ %35, %.preheader89.lr.ph ], [ %indvars.iv.next113, %._crit_edge ]
  br i1 %27, label %.lr.ph, label %.preheader

.lr.ph:                                           ; preds = %.preheader89
  %39 = mul nsw i64 %indvars.iv112, %16
  %40 = getelementptr i16, ptr %12, i64 %39
  %41 = getelementptr i16, ptr %40, i64 %29
  br label %48

.preheader:                                       ; preds = %48, %.preheader89
  br i1 %32, label %.lr.ph95, label %._crit_edge

.lr.ph95:                                         ; preds = %.preheader
  %42 = mul nsw i64 %indvars.iv112, %16
  %43 = load i32, ptr %33, align 4, !tbaa !45
  %44 = sext i32 %43 to i64
  %45 = sub nsw i64 %42, %34
  %46 = getelementptr i16, ptr %12, i64 %45
  %47 = getelementptr i16, ptr %46, i64 %44
  br label %53

48:                                               ; preds = %.lr.ph, %48
  %indvars.iv = phi i64 [ 0, %.lr.ph ], [ %indvars.iv.next, %48 ]
  %49 = xor i64 %indvars.iv, -1
  %50 = getelementptr i16, ptr %41, i64 %49
  %51 = load i16, ptr %50, align 2, !tbaa !67
  %52 = getelementptr i16, ptr %40, i64 %indvars.iv
  store i16 %51, ptr %52, align 2, !tbaa !67
  %indvars.iv.next = add nuw nsw i64 %indvars.iv, 1
  %exitcond.not = icmp eq i64 %indvars.iv.next, %wide.trip.count
  br i1 %exitcond.not, label %.preheader, label %48, !llvm.loop !81

53:                                               ; preds = %.lr.ph95, %53
  %indvars.iv107 = phi i64 [ 0, %.lr.ph95 ], [ %indvars.iv.next108, %53 ]
  %54 = xor i64 %indvars.iv107, -1
  %55 = getelementptr i16, ptr %47, i64 %54
  %56 = load i16, ptr %55, align 2, !tbaa !67
  %57 = getelementptr i16, ptr %47, i64 %indvars.iv107
  store i16 %56, ptr %57, align 2, !tbaa !67
  %indvars.iv.next108 = add nuw nsw i64 %indvars.iv107, 1
  %exitcond111.not = icmp eq i64 %indvars.iv.next108, %wide.trip.count110
  br i1 %exitcond111.not, label %._crit_edge, label %53, !llvm.loop !82

._crit_edge:                                      ; preds = %53, %.preheader
  %indvars.iv.next113 = add nsw i64 %indvars.iv112, 1
  %58 = icmp slt i64 %indvars.iv.next113, %36
  br i1 %58, label %.preheader89, label %.preheader91, !llvm.loop !83

.preheader90.loopexit:                            ; preds = %62
  %.pre = load i32, ptr %22, align 4, !tbaa !56
  br label %.preheader90

.preheader90:                                     ; preds = %.preheader90.loopexit, %.preheader91
  %59 = phi i32 [ %.pre, %.preheader90.loopexit ], [ %23, %.preheader91 ]
  %60 = icmp sgt i32 %59, 0
  br i1 %60, label %.lr.ph100, label %._crit_edge101

.lr.ph100:                                        ; preds = %.preheader90
  %61 = getelementptr inbounds nuw [4 x i32], ptr %9, i64 0, i64 %indvars.iv118
  br label %79

62:                                               ; preds = %.lr.ph98, %62
  %indvars.iv115 = phi i64 [ 0, %.lr.ph98 ], [ %indvars.iv.next116, %62 ]
  %63 = phi i32 [ %19, %.lr.ph98 ], [ %76, %62 ]
  %64 = mul nsw i64 %indvars.iv115, %16
  %65 = getelementptr inbounds i16, ptr %12, i64 %64
  %66 = shl nsw i32 %63, 1
  %67 = trunc nuw nsw i64 %indvars.iv115 to i32
  %68 = xor i32 %67, -1
  %69 = add i32 %66, %68
  %70 = sext i32 %69 to i64
  %71 = mul nsw i64 %70, %16
  %72 = getelementptr inbounds i16, ptr %12, i64 %71
  %73 = load i32, ptr %38, align 4, !tbaa !45
  %74 = shl nsw i32 %73, 1
  %75 = sext i32 %74 to i64
  tail call void @llvm.memcpy.p0.p0.i64(ptr align 2 %65, ptr align 2 %72, i64 %75, i1 false)
  %indvars.iv.next116 = add nuw nsw i64 %indvars.iv115, 1
  %76 = load i32, ptr %18, align 4, !tbaa !55
  %77 = sext i32 %76 to i64
  %78 = icmp slt i64 %indvars.iv.next116, %77
  br i1 %78, label %62, label %.preheader90.loopexit, !llvm.loop !84

79:                                               ; preds = %.lr.ph100, %79
  %80 = phi i32 [ %59, %.lr.ph100 ], [ %96, %79 ]
  %.299 = phi i32 [ 0, %.lr.ph100 ], [ %95, %79 ]
  %81 = load i32, ptr %20, align 4, !tbaa !45
  %82 = sub nsw i32 %81, %80
  %83 = add nsw i32 %82, %.299
  %84 = sext i32 %83 to i64
  %85 = mul nsw i64 %84, %16
  %86 = getelementptr inbounds i16, ptr %12, i64 %85
  %87 = xor i32 %.299, -1
  %88 = add i32 %82, %87
  %89 = sext i32 %88 to i64
  %90 = mul nsw i64 %89, %16
  %91 = getelementptr inbounds i16, ptr %12, i64 %90
  %92 = load i32, ptr %61, align 4, !tbaa !45
  %93 = shl nsw i32 %92, 1
  %94 = sext i32 %93 to i64
  tail call void @llvm.memcpy.p0.p0.i64(ptr align 2 %86, ptr align 2 %91, i64 %94, i1 false)
  %95 = add nuw nsw i32 %.299, 1
  %96 = load i32, ptr %22, align 4, !tbaa !56
  %97 = icmp slt i32 %95, %96
  br i1 %97, label %79, label %._crit_edge101, !llvm.loop !85

._crit_edge101:                                   ; preds = %79, %.preheader90
  %indvars.iv.next119 = add nuw nsw i64 %indvars.iv118, 1
  %98 = load i32, ptr %3, align 4, !tbaa !39
  %99 = sext i32 %98 to i64
  %100 = icmp slt i64 %indvars.iv.next119, %99
  br i1 %100, label %10, label %._crit_edge105, !llvm.loop !86

._crit_edge105:                                   ; preds = %._crit_edge101, %2
  ret void
}